; ModuleID = '54/146.c'
source_filename = "54/146.c"
target datalayout = "e-m:e-p270:32:32-p271:32:32-p272:64:64-i64:64-f80:128-n8:16:32:64-S128"
target triple = "x86_64-pc-linux-gnu"

@.str = private unnamed_addr constant [6 x i8] c"%d %d\00", align 1
@.str.1 = private unnamed_addr constant [4 x i8] c"%d\0A\00", align 1

; Function Attrs: noinline nounwind uwtable
define dso_local void @main() #0 {
  %1 = alloca i32, align 4
  %2 = alloca i32, align 4
  %3 = alloca i32, align 4
  %4 = alloca i32, align 4
  %5 = alloca i32, align 4
  %6 = alloca i32, align 4
  %7 = alloca i32, align 4
  %8 = call i32 (i8*, ...) @__isoc99_scanf(i8* getelementptr inbounds ([6 x i8], [6 x i8]* @.str, i64 0, i64 0), i32* %3, i32* %2)
  store i32 1, i32* %1, align 4
  br label %9

9:                                                ; preds = %44, %0
  br i1 true, label %10, label %47

10:                                               ; preds = %9
  store i32 0, i32* %6, align 4
  %11 = load i32, i32* %1, align 4
  store i32 %11, i32* %7, align 4
  store i32 1, i32* %5, align 4
  br label %12

12:                                               ; preds = %34, %10
  %13 = load i32, i32* %5, align 4
  %14 = load i32, i32* %3, align 4
  %15 = icmp sle i32 %13, %14
  br i1 %15, label %16, label %37

16:                                               ; preds = %12
  %17 = load i32, i32* %7, align 4
  %18 = load i32, i32* %3, align 4
  %19 = srem i32 %17, %18
  store i32 %19, i32* %4, align 4
  %20 = load i32, i32* %7, align 4
  %21 = load i32, i32* %3, align 4
  %22 = sdiv i32 %20, %21
  %23 = load i32, i32* %3, align 4
  %24 = sub nsw i32 %23, 1
  %25 = mul nsw i32 %22, %24
  store i32 %25, i32* %7, align 4
  %26 = load i32, i32* %4, align 4
  %27 = load i32, i32* %2, align 4
  %28 = icmp ne i32 %26, %27
  br i1 %28, label %32, label %29

29:                                               ; preds = %16
  %30 = load i32, i32* %7, align 4
  %31 = icmp eq i32 %30, 0
  br i1 %31, label %32, label %33

32:                                               ; preds = %29, %16
  store i32 1, i32* %6, align 4
  br label %37

33:                                               ; preds = %29
  br label %34

34:                                               ; preds = %33
  %35 = load i32, i32* %5, align 4
  %36 = add nsw i32 %35, 1
  store i32 %36, i32* %5, align 4
  br label %12

37:                                               ; preds = %32, %12
  %38 = load i32, i32* %6, align 4
  %39 = icmp eq i32 %38, 0
  br i1 %39, label %40, label %43

40:                                               ; preds = %37
  %41 = load i32, i32* %1, align 4
  %42 = call i32 (i8*, ...) @printf(i8* getelementptr inbounds ([4 x i8], [4 x i8]* @.str.1, i64 0, i64 0), i32 %41)
  br label %47

43:                                               ; preds = %37
  br label %44

44:                                               ; preds = %43
  %45 = load i32, i32* %1, align 4
  %46 = add nsw i32 %45, 1
  store i32 %46, i32* %1, align 4
  br label %9

47:                                               ; preds = %40, %9
  ret void
}

declare dso_local i32 @__isoc99_scanf(i8*, ...) #1

declare dso_local i32 @printf(i8*, ...) #1


!llvm.module.flags = !{!0}
!llvm.ident = !{!1}

!0 = !{i32 1, !"wchar_size", i32 4}
!1 = !{!"clang version 10.0.0-4ubuntu1 "}
